; Function Attrs: mustprogress uwtable
define dso_local void @_ZN4Luau7CodeGen3X6418AssemblyBuilderX643cmpENS1_10OperandX64ES3_(ptr noundef nonnull align 8 dereferenceable(252) %0, i64 %1, i64 %2) local_unnamed_addr #0 align 2 {
  %.sroa.055.0.extract.trunc.i = trunc i64 %1 to i8
  %.sroa.027.0.extract.trunc.i = trunc i64 %2 to i8
  %4 = getelementptr inbounds nuw i8, ptr %0, i64 80
  %5 = load i8, ptr %4, align 8, !tbaa !14, !range !61, !noundef !62
  %6 = trunc nuw i8 %5 to i1
  br i1 %6, label %7, label %8

7:                                                ; preds = %3
  tail call void @_ZN4Luau7CodeGen3X6418AssemblyBuilderX643logEPKcNS1_10OperandX64ES5_(ptr noundef nonnull align 8 dereferenceable(252) %0, ptr noundef nonnull @.str.2, i64 %1, i64 %2)
  br label %8

8:                                                ; preds = %7, %3
  %9 = icmp eq i8 %.sroa.055.0.extract.trunc.i, 1
  %or.cond.i = icmp ult i8 %.sroa.055.0.extract.trunc.i, 2
  %10 = icmp eq i8 %.sroa.027.0.extract.trunc.i, 2
  %or.cond5.i = select i1 %or.cond.i, i1 %10, i1 false
  br i1 %or.cond5.i, label %11, label %12

11:                                               ; preds = %8
  tail call void @_ZN4Luau7CodeGen3X6418AssemblyBuilderX6423placeBinaryRegMemAndImmENS1_10OperandX64ES3_hhhh(ptr noundef nonnull align 8 dereferenceable(252) %0, i64 %1, i64 %2, i8 noundef zeroext -128, i8 noundef zeroext -127, i8 noundef zeroext -125, i8 noundef zeroext 7)
  br label %_ZN4Luau7CodeGen3X6418AssemblyBuilderX6411placeBinaryEPKcNS1_10OperandX64ES5_hhhhhhhh.exit

12:                                               ; preds = %8
  %13 = icmp eq i8 %.sroa.055.0.extract.trunc.i, 0
  %or.cond8.i = icmp ult i8 %.sroa.027.0.extract.trunc.i, 2
  %or.cond90.i = select i1 %13, i1 %or.cond8.i, i1 false
  br i1 %or.cond90.i, label %14, label %15

14:                                               ; preds = %12
  tail call void @_ZN4Luau7CodeGen3X6418AssemblyBuilderX6423placeBinaryRegAndRegMemENS1_10OperandX64ES3_hh(ptr noundef nonnull align 8 dereferenceable(252) %0, i64 %1, i64 %2, i8 noundef zeroext 58, i8 noundef zeroext 59)
  br label %_ZN4Luau7CodeGen3X6418AssemblyBuilderX6411placeBinaryEPKcNS1_10OperandX64ES5_hhhhhhhh.exit

15:                                               ; preds = %12
  %16 = icmp eq i8 %.sroa.027.0.extract.trunc.i, 0
  %or.cond11.i = select i1 %9, i1 %16, i1 false
  br i1 %or.cond11.i, label %17, label %_ZN4Luau7CodeGen3X6418AssemblyBuilderX6411placeBinaryEPKcNS1_10OperandX64ES5_hhhhhhhh.exit

17:                                               ; preds = %15
  tail call void @_ZN4Luau7CodeGen3X6418AssemblyBuilderX6423placeBinaryRegAndRegMemENS1_10OperandX64ES3_hh(ptr noundef nonnull align 8 dereferenceable(252) %0, i64 %2, i64 %1, i8 noundef zeroext 56, i8 noundef zeroext 57)
  br label %_ZN4Luau7CodeGen3X6418AssemblyBuilderX6411placeBinaryEPKcNS1_10OperandX64ES5_hhhhhhhh.exit

_ZN4Luau7CodeGen3X6418AssemblyBuilderX6411placeBinaryEPKcNS1_10OperandX64ES5_hhhhhhhh.exit: ; preds = %11, %14, %15, %17
  ret void
}